; Function Attrs: nounwind uwtable
define dso_local noundef zeroext i1 @do_lo_import(ptr noundef %0, ptr noundef %1) local_unnamed_addr #0 {
  %3 = alloca [32 x i8], align 16
  %4 = alloca i8, align 1
  call void @llvm.lifetime.start.p0(i64 32, ptr nonnull %3) #8
  call void @llvm.lifetime.start.p0(i64 1, ptr nonnull %4) #8
  %5 = call fastcc zeroext i1 @start_lo_xact(ptr noundef nonnull @.str.3, ptr noundef %4)
  br i1 %5, label %6, label %fail_lo_xact.exit

6:                                                ; preds = %2
  tail call void @SetCancelConn(ptr noundef null) #8
  %7 = load ptr, ptr @pset, align 8
  %8 = tail call i32 @lo_import(ptr noundef %7, ptr noundef %0) #8
  tail call void @ResetCancelConn() #8
  %9 = icmp eq i32 %8, 0
  br i1 %9, label %10, label %20

10:                                               ; preds = %6
  %11 = load ptr, ptr @pset, align 8
  %12 = tail call ptr @PQerrorMessage(ptr noundef %11) #8
  tail call void (i32, i32, ptr, ...) @pg_log_generic(i32 noundef 2, i32 noundef 0, ptr noundef nonnull @.str.1, ptr noundef %12) #8
  %13 = load i8, ptr %4, align 1, !range !4, !noundef !5
  %14 = trunc nuw i8 %13 to i1
  br i1 %14, label %15, label %fail_lo_xact.exit

15:                                               ; preds = %10
  %16 = load i8, ptr getelementptr inbounds nuw (i8, ptr @pset, i64 400), align 8, !range !4, !noundef !5
  %17 = trunc nuw i8 %16 to i1
  br i1 %17, label %18, label %fail_lo_xact.exit

18:                                               ; preds = %15
  %19 = tail call ptr @PSQLexec(ptr noundef nonnull @.str.15) #8
  tail call void @PQclear(ptr noundef %19) #8
  br label %fail_lo_xact.exit

20:                                               ; preds = %6
  %.not = icmp eq ptr %1, null
  br i1 %.not, label %50, label %21

21:                                               ; preds = %20
  %22 = tail call i64 @strlen(ptr noundef nonnull dereferenceable(1) %1) #9
  %23 = shl i64 %22, 1
  %24 = add i64 %23, 256
  %25 = tail call ptr @pg_malloc_extended(i64 noundef %24, i32 noundef 2) #8
  %.not27 = icmp eq ptr %25, null
  br i1 %.not27, label %26, label %34

26:                                               ; preds = %21
  %27 = load i8, ptr %4, align 1, !range !4, !noundef !5
  %28 = trunc nuw i8 %27 to i1
  br i1 %28, label %29, label %fail_lo_xact.exit

29:                                               ; preds = %26
  %30 = load i8, ptr getelementptr inbounds nuw (i8, ptr @pset, i64 400), align 8, !range !4, !noundef !5
  %31 = trunc nuw i8 %30 to i1
  br i1 %31, label %32, label %fail_lo_xact.exit

32:                                               ; preds = %29
  %33 = tail call ptr @PSQLexec(ptr noundef nonnull @.str.15) #8
  tail call void @PQclear(ptr noundef %33) #8
  br label %fail_lo_xact.exit

34:                                               ; preds = %21
  %35 = tail call i32 (ptr, ptr, ...) @pg_sprintf(ptr noundef nonnull %25, ptr noundef nonnull @.str.4, i32 noundef %8) #8
  %36 = tail call i64 @strlen(ptr noundef nonnull dereferenceable(1) %25) #9
  %37 = getelementptr inbounds nuw i8, ptr %25, i64 %36
  %38 = load ptr, ptr @pset, align 8
  %39 = tail call i64 @PQescapeStringConn(ptr noundef %38, ptr noundef nonnull %37, ptr noundef nonnull %1, i64 noundef %22, ptr noundef null) #8
  %40 = getelementptr inbounds nuw i8, ptr %37, i64 %39
  store i16 39, ptr %40, align 1
  %41 = tail call ptr @PSQLexec(ptr noundef nonnull %25) #8
  %.not28 = icmp eq ptr %41, null
  br i1 %.not28, label %42, label %.critedge

42:                                               ; preds = %34
  tail call void @free(ptr noundef nonnull %25) #8
  %43 = load i8, ptr %4, align 1, !range !4, !noundef !5
  %44 = trunc nuw i8 %43 to i1
  br i1 %44, label %45, label %fail_lo_xact.exit

45:                                               ; preds = %42
  %46 = load i8, ptr getelementptr inbounds nuw (i8, ptr @pset, i64 400), align 8, !range !4, !noundef !5
  %47 = trunc nuw i8 %46 to i1
  br i1 %47, label %48, label %fail_lo_xact.exit

48:                                               ; preds = %45
  %49 = tail call ptr @PSQLexec(ptr noundef nonnull @.str.15) #8
  tail call void @PQclear(ptr noundef %49) #8
  br label %fail_lo_xact.exit

.critedge:                                        ; preds = %34
  tail call void @PQclear(ptr noundef nonnull %41) #8
  tail call void @free(ptr noundef nonnull %25) #8
  br label %50

50:                                               ; preds = %.critedge, %20
  %51 = load i8, ptr %4, align 1, !range !4, !noundef !5
  %52 = trunc nuw i8 %51 to i1
  br i1 %52, label %53, label %finish_lo_xact.exit.thread

53:                                               ; preds = %50
  %54 = load i8, ptr getelementptr inbounds nuw (i8, ptr @pset, i64 400), align 8, !range !4, !noundef !5
  %55 = trunc nuw i8 %54 to i1
  br i1 %55, label %56, label %finish_lo_xact.exit.thread

56:                                               ; preds = %53
  %57 = tail call ptr @PSQLexec(ptr noundef nonnull @.str.16) #8
  %.not.i.not = icmp eq ptr %57, null
  br i1 %.not.i.not, label %finish_lo_xact.exit, label %finish_lo_xact.exit.thread32

finish_lo_xact.exit.thread32:                     ; preds = %56
  tail call void @PQclear(ptr noundef nonnull %57) #8
  br label %finish_lo_xact.exit.thread

finish_lo_xact.exit:                              ; preds = %56
  %58 = tail call ptr @PSQLexec(ptr noundef nonnull @.str.15) #8
  tail call void @PQclear(ptr noundef %58) #8
  br label %fail_lo_xact.exit

finish_lo_xact.exit.thread:                       ; preds = %50, %53, %finish_lo_xact.exit.thread32
  tail call void (ptr, ...) @print_lo_result(ptr noundef nonnull @.str.6, i32 noundef %8)
  %59 = call i32 (ptr, ptr, ...) @pg_sprintf(ptr noundef nonnull %3, ptr noundef nonnull @.str.7, i32 noundef %8) #8
  %60 = load ptr, ptr getelementptr inbounds nuw (i8, ptr @pset, i64 384), align 8
  %61 = call zeroext i1 @SetVariable(ptr noundef %60, ptr noundef nonnull @.str.8, ptr noundef nonnull %3) #8
  br label %fail_lo_xact.exit

fail_lo_xact.exit:                                ; preds = %finish_lo_xact.exit, %48, %45, %42, %32, %29, %26, %18, %15, %10, %2, %finish_lo_xact.exit.thread
  %.0 = phi i1 [ true, %finish_lo_xact.exit.thread ], [ false, %2 ], [ false, %finish_lo_xact.exit ], [ false, %10 ], [ false, %15 ], [ false, %18 ], [ false, %26 ], [ false, %29 ], [ false, %32 ], [ false, %42 ], [ false, %45 ], [ false, %48 ]
  call void @llvm.lifetime.end.p0(i64 1, ptr nonnull %4) #8
  call void @llvm.lifetime.end.p0(i64 32, ptr nonnull %3) #8
  ret i1 %.0
}